target datalayout = "e-m:e-p270:32:32-p271:32:32-p272:64:64-i64:64-i128:128-f80:128-n8:16:32:64-S128"
target triple = "x86_64-pc-linux-gnu"

%"class.clang::SourceLocation" = type { i32 }
%"class.clang::comments::Lexer" = type { ptr, ptr, ptr, ptr, ptr, ptr, ptr, %"class.clang::SourceLocation", i8, i8, i8, %"class.llvm::SmallString" }
%"class.llvm::SmallString" = type { %"class.llvm::SmallVector.74" }
%"class.llvm::SmallVector.74" = type { %"class.llvm::SmallVectorImpl.75", %"struct.llvm::SmallVectorStorage.79" }
%"class.llvm::SmallVectorImpl.75" = type { %"class.llvm::SmallVectorTemplateBase.76" }
%"class.llvm::SmallVectorTemplateBase.76" = type { %"class.llvm::SmallVectorTemplateCommon.77" }
%"class.llvm::SmallVectorTemplateCommon.77" = type { %"class.llvm::SmallVectorBase.78" }
%"class.llvm::SmallVectorBase.78" = type { ptr, i64, i64 }
%"struct.llvm::SmallVectorStorage.79" = type { [16 x i8] }

@_ZN5clang8charinfo9InfoTableE = external constant [256 x i16], align 16

; Function Attrs: mustprogress nounwind willreturn memory(read) uwtable
define linkonce_odr hidden noundef zeroext i1 @_ZN5clang22isHorizontalWhitespaceEh(i8 noundef zeroext %0) #3 comdat {
  %2 = alloca i8, align 1
  store i8 %0, ptr %2, align 1
  %3 = load i8, ptr %2, align 1
  %4 = zext i8 %3 to i64
  %5 = getelementptr inbounds [256 x i16], ptr @_ZN5clang8charinfo9InfoTableE, i64 0, i64 %4
  %6 = load i16, ptr %5, align 2
  %7 = zext i16 %6 to i32
  %8 = and i32 %7, 5
  %9 = icmp ne i32 %8, 0
  ret i1 %9
}

; Function Attrs: mustprogress nounwind uwtable
define dso_local void @_ZN5clang8comments5Lexer27skipLineStartingDecorationsEv(ptr noundef nonnull align 8 dereferenceable(104) %0) #0 align 2 {
  %2 = alloca ptr, align 8
  %3 = alloca ptr, align 8
  store ptr %0, ptr %2, align 8
  %4 = load ptr, ptr %2, align 8
  %5 = getelementptr inbounds nuw %"class.clang::comments::Lexer", ptr %4, i32 0, i32 5
  %6 = load ptr, ptr %5, align 8
  %7 = getelementptr inbounds nuw %"class.clang::comments::Lexer", ptr %4, i32 0, i32 6
  %8 = load ptr, ptr %7, align 8
  %9 = icmp eq ptr %6, %8
  br i1 %9, label %10, label %11

10:                                               ; preds = %1
  br label %35

11:                                               ; preds = %1
  %12 = getelementptr inbounds nuw %"class.clang::comments::Lexer", ptr %4, i32 0, i32 5
  %13 = load ptr, ptr %12, align 8
  store ptr %13, ptr %3, align 8
  br label %14

14:                                               ; preds = %25, %11
  %15 = load ptr, ptr %3, align 8
  %16 = load i8, ptr %15, align 1
  %17 = call noundef zeroext i1 @_ZN5clang22isHorizontalWhitespaceEh(i8 noundef zeroext %16) #10
  br i1 %17, label %18, label %26

18:                                               ; preds = %14
  %19 = load ptr, ptr %3, align 8
  %20 = getelementptr inbounds i8, ptr %19, i32 1
  store ptr %20, ptr %3, align 8
  %21 = getelementptr inbounds nuw %"class.clang::comments::Lexer", ptr %4, i32 0, i32 6
  %22 = load ptr, ptr %21, align 8
  %23 = icmp eq ptr %20, %22
  br i1 %23, label %24, label %25

24:                                               ; preds = %18
  br label %35

25:                                               ; preds = %18
  br label %14, !llvm.loop !7

26:                                               ; preds = %14
  %27 = load ptr, ptr %3, align 8
  %28 = load i8, ptr %27, align 1
  %29 = sext i8 %28 to i32
  %30 = icmp eq i32 %29, 42
  br i1 %30, label %31, label %35

31:                                               ; preds = %26
  %32 = load ptr, ptr %3, align 8
  %33 = getelementptr inbounds i8, ptr %32, i64 1
  %34 = getelementptr inbounds nuw %"class.clang::comments::Lexer", ptr %4, i32 0, i32 5
  store ptr %33, ptr %34, align 8
  br label %35

35:                                               ; preds = %31, %26, %24, %10
  ret void
}