; Function Attrs: mustprogress nofree norecurse nosync nounwind memory(read, argmem: readwrite, inaccessiblemem: none) uwtable
define dso_local void @_ZN5clang8comments5Lexer27skipLineStartingDecorationsEv(ptr nocapture noundef nonnull align 8 dereferenceable(104) %0) local_unnamed_addr #4 align 2 {
  %2 = getelementptr inbounds nuw i8, ptr %0, i64 40
  %3 = load ptr, ptr %2, align 8
  %4 = getelementptr inbounds nuw i8, ptr %0, i64 48
  %5 = load ptr, ptr %4, align 8
  %6 = icmp eq ptr %3, %5
  br i1 %6, label %.loopexit, label %.preheader

.preheader:                                       ; preds = %1, %12
  %.0 = phi ptr [ %13, %12 ], [ %3, %1 ]
  %7 = load i8, ptr %.0, align 1
  %8 = zext i8 %7 to i64
  %9 = getelementptr inbounds [256 x i16], ptr @_ZN5clang8charinfo9InfoTableE, i64 0, i64 %8
  %10 = load i16, ptr %9, align 2
  %11 = and i16 %10, 5
  %.not = icmp eq i16 %11, 0
  br i1 %.not, label %15, label %12

12:                                               ; preds = %.preheader
  %13 = getelementptr inbounds i8, ptr %.0, i64 1
  %14 = icmp eq ptr %13, %5
  br i1 %14, label %.loopexit, label %.preheader, !llvm.loop !7

15:                                               ; preds = %.preheader
  %16 = icmp eq i8 %7, 42
  br i1 %16, label %17, label %.loopexit

17:                                               ; preds = %15
  %18 = getelementptr inbounds i8, ptr %.0, i64 1
  store ptr %18, ptr %2, align 8
  br label %.loopexit

.loopexit:                                        ; preds = %12, %1, %17, %15
  ret void
}